target datalayout = "e-m:e-p270:32:32-p271:32:32-p272:64:64-i64:64-i128:128-f80:128-n8:16:32:64-S128"
target triple = "x86_64-pc-linux-gnu"

@testctx = internal global ptr null, align 8
@.str.18 = private unnamed_addr constant [33 x i8] c"../openssl/test/evp_extra_test.c\00", align 1
@testpropq = internal global ptr null, align 8
@kExampleECPubKeyDER = internal constant [91 x i8] c"0Y0\13\06\07*\86H\CE=\02\01\06\08*\86H\CE=\03\01\07\03B\00\04\BA\EB\83\FB;\B2\FF0S\DB\CE2\F2\AC\AED\0D=\13S\B8\D1hU\DEDF\05\A6\C9\D2\04\B7\E3\A2\96\C8\B2^\22\03\D7\03z\8B\13\\BI\C2\AB\86\D6\ACk\93 Vj\C6\C8\A5\0B\E5", align 16
@.str.353 = private unnamed_addr constant [3 x i8] c"xp\00", align 1
@.str.354 = private unnamed_addr constant [36 x i8] c"d2i_X509_PUBKEY(&xp, &p, input_len)\00", align 1
@.str.355 = private unnamed_addr constant [21 x i8] c"X509_PUBKEY_get0(xp)\00", align 1
@kExampleBadECPubKeyDER = internal constant [91 x i8] c"0Y0\13\06\07*\86H\CE=\02\02\06\08*\86H\CE=\03\01\07\03B\00\04\BA\EB\83\FB;\B2\FF0S\DB\CE2\F2\AC\AED\0D=\13S\B8\D1hU\DEDF\05\A6\C9\D2\04\B7\E3\A2\96\C8\B2^\22\03\D7\03z\8B\13\\BI\C2\AB\86\D6\ACk\93 Vj\C6\C8\A5\0B\E5", align 16
@.str.356 = private unnamed_addr constant [41 x i8] c"xp = d2i_X509_PUBKEY(&xp, &p, input_len)\00", align 1
@.str.358 = private unnamed_addr constant [25 x i8] c"xq = X509_PUBKEY_dup(xp)\00", align 1
@.str.359 = private unnamed_addr constant [3 x i8] c"xq\00", align 1
@.str.360 = private unnamed_addr constant [21 x i8] c"X509_PUBKEY_get0(xq)\00", align 1
@.str.361 = private unnamed_addr constant [29 x i8] c"X509_PUBKEY_get0(xq) == NULL\00", align 1

; Function Attrs: nounwind uwtable
define internal i32 @test_X509_PUBKEY_dup() #0 {
  %1 = alloca i32, align 4
  %2 = alloca ptr, align 8
  %3 = alloca ptr, align 8
  %4 = alloca ptr, align 8
  %5 = alloca i64, align 8
  call void @llvm.lifetime.start.p0(i64 4, ptr %1) #8
  store i32 0, ptr %1, align 4, !tbaa !9
  call void @llvm.lifetime.start.p0(i64 8, ptr %2) #8
  store ptr null, ptr %2, align 8, !tbaa !69
  call void @llvm.lifetime.start.p0(i64 8, ptr %3) #8
  store ptr null, ptr %3, align 8, !tbaa !69
  call void @llvm.lifetime.start.p0(i64 8, ptr %4) #8
  store ptr @kExampleECPubKeyDER, ptr %4, align 8, !tbaa !4
  call void @llvm.lifetime.start.p0(i64 8, ptr %5) #8
  store i64 91, ptr %5, align 8, !tbaa !23
  %6 = load ptr, ptr @testctx, align 8, !tbaa !11
  %7 = load ptr, ptr @testpropq, align 8, !tbaa !4
  %8 = call ptr @X509_PUBKEY_new_ex(ptr noundef %6, ptr noundef %7)
  store ptr %8, ptr %2, align 8, !tbaa !69
  %9 = load ptr, ptr %2, align 8, !tbaa !69
  %10 = call i32 @test_ptr(ptr noundef @.str.18, i32 noundef 3432, ptr noundef @.str.353, ptr noundef %9)
  %11 = icmp ne i32 %10, 0
  br i1 %11, label %12, label %27

12:                                               ; preds = %0
  %13 = load i64, ptr %5, align 8, !tbaa !23
  %14 = call ptr @d2i_X509_PUBKEY(ptr noundef %2, ptr noundef %4, i64 noundef %13)
  %15 = call i32 @test_ptr(ptr noundef @.str.18, i32 noundef 3433, ptr noundef @.str.354, ptr noundef %14)
  %16 = icmp ne i32 %15, 0
  br i1 %16, label %17, label %27

17:                                               ; preds = %12
  %18 = load ptr, ptr %2, align 8, !tbaa !69
  %19 = call ptr @X509_PUBKEY_dup(ptr noundef %18)
  store ptr %19, ptr %3, align 8, !tbaa !69
  %20 = call i32 @test_ptr(ptr noundef @.str.18, i32 noundef 3434, ptr noundef @.str.358, ptr noundef %19)
  %21 = icmp ne i32 %20, 0
  br i1 %21, label %22, label %27

22:                                               ; preds = %17
  %23 = load ptr, ptr %2, align 8, !tbaa !69
  %24 = load ptr, ptr %3, align 8, !tbaa !69
  %25 = call i32 @test_ptr_ne(ptr noundef @.str.18, i32 noundef 3435, ptr noundef @.str.353, ptr noundef @.str.359, ptr noundef %23, ptr noundef %24)
  %26 = icmp ne i32 %25, 0
  br i1 %26, label %28, label %27

27:                                               ; preds = %22, %17, %12, %0
  br label %70

28:                                               ; preds = %22
  %29 = load ptr, ptr %3, align 8, !tbaa !69
  %30 = call ptr @X509_PUBKEY_get0(ptr noundef %29)
  %31 = call i32 @test_ptr(ptr noundef @.str.18, i32 noundef 3438, ptr noundef @.str.360, ptr noundef %30)
  %32 = icmp ne i32 %31, 0
  br i1 %32, label %33, label %45

33:                                               ; preds = %28
  %34 = load ptr, ptr %2, align 8, !tbaa !69
  %35 = call ptr @X509_PUBKEY_get0(ptr noundef %34)
  %36 = call i32 @test_ptr(ptr noundef @.str.18, i32 noundef 3439, ptr noundef @.str.355, ptr noundef %35)
  %37 = icmp ne i32 %36, 0
  br i1 %37, label %38, label %45

38:                                               ; preds = %33
  %39 = load ptr, ptr %3, align 8, !tbaa !69
  %40 = call ptr @X509_PUBKEY_get0(ptr noundef %39)
  %41 = load ptr, ptr %2, align 8, !tbaa !69
  %42 = call ptr @X509_PUBKEY_get0(ptr noundef %41)
  %43 = call i32 @test_ptr_ne(ptr noundef @.str.18, i32 noundef 3440, ptr noundef @.str.360, ptr noundef @.str.355, ptr noundef %40, ptr noundef %42)
  %44 = icmp ne i32 %43, 0
  br i1 %44, label %46, label %45

45:                                               ; preds = %38, %33, %28
  br label %70

46:                                               ; preds = %38
  %47 = load ptr, ptr %3, align 8, !tbaa !69
  call void @X509_PUBKEY_free(ptr noundef %47)
  store ptr null, ptr %3, align 8, !tbaa !69
  store ptr @kExampleBadECPubKeyDER, ptr %4, align 8, !tbaa !4
  store i64 91, ptr %5, align 8, !tbaa !23
  %48 = load i64, ptr %5, align 8, !tbaa !23
  %49 = call ptr @d2i_X509_PUBKEY(ptr noundef %2, ptr noundef %4, i64 noundef %48)
  store ptr %49, ptr %2, align 8, !tbaa !69
  %50 = call i32 @test_ptr(ptr noundef @.str.18, i32 noundef 3448, ptr noundef @.str.356, ptr noundef %49)
  %51 = icmp ne i32 %50, 0
  br i1 %51, label %52, label %57

52:                                               ; preds = %46
  %53 = load ptr, ptr %2, align 8, !tbaa !69
  %54 = call ptr @X509_PUBKEY_dup(ptr noundef %53)
  store ptr %54, ptr %3, align 8, !tbaa !69
  %55 = call i32 @test_ptr(ptr noundef @.str.18, i32 noundef 3449, ptr noundef @.str.358, ptr noundef %54)
  %56 = icmp ne i32 %55, 0
  br i1 %56, label %58, label %57

57:                                               ; preds = %52, %46
  br label %70

58:                                               ; preds = %52
  %59 = load ptr, ptr %2, align 8, !tbaa !69
  call void @X509_PUBKEY_free(ptr noundef %59)
  store ptr null, ptr %2, align 8, !tbaa !69
  %60 = load ptr, ptr %3, align 8, !tbaa !69
  %61 = call ptr @X509_PUBKEY_get0(ptr noundef %60)
  %62 = icmp eq ptr %61, null
  %63 = zext i1 %62 to i32
  %64 = icmp ne i32 %63, 0
  %65 = zext i1 %64 to i32
  %66 = call i32 @test_true(ptr noundef @.str.18, i32 noundef 3454, ptr noundef @.str.361, i32 noundef %65)
  %67 = icmp ne i32 %66, 0
  br i1 %67, label %69, label %68

68:                                               ; preds = %58
  br label %70

69:                                               ; preds = %58
  store i32 1, ptr %1, align 4, !tbaa !9
  br label %70

70:                                               ; preds = %69, %68, %57, %45, %27
  %71 = load ptr, ptr %2, align 8, !tbaa !69
  call void @X509_PUBKEY_free(ptr noundef %71)
  %72 = load ptr, ptr %3, align 8, !tbaa !69
  call void @X509_PUBKEY_free(ptr noundef %72)
  %73 = load i32, ptr %1, align 4, !tbaa !9
  call void @llvm.lifetime.end.p0(i64 8, ptr %5) #8
  call void @llvm.lifetime.end.p0(i64 8, ptr %4) #8
  call void @llvm.lifetime.end.p0(i64 8, ptr %3) #8
  call void @llvm.lifetime.end.p0(i64 8, ptr %2) #8
  call void @llvm.lifetime.end.p0(i64 4, ptr %1) #8
  ret i32 %73
}