; Function Attrs: nounwind uwtable
define internal range(i32 0, 2) i32 @test_X509_PUBKEY_dup() #1 {
  %1 = alloca ptr, align 8
  %2 = alloca ptr, align 8
  call void @llvm.lifetime.start.p0(i64 8, ptr nonnull %1) #9
  call void @llvm.lifetime.start.p0(i64 8, ptr nonnull %2) #9
  store ptr @kExampleECPubKeyDER, ptr %2, align 8, !tbaa !19
  %3 = load ptr, ptr @testctx, align 8, !tbaa !6
  %4 = tail call ptr @X509_PUBKEY_new_ex(ptr noundef %3, ptr noundef null) #9
  store ptr %4, ptr %1, align 8, !tbaa !46
  %5 = tail call i32 @test_ptr(ptr noundef nonnull @.str.18, i32 noundef 3432, ptr noundef nonnull @.str.353, ptr noundef %4) #9
  %.not = icmp eq i32 %5, 0
  br i1 %.not, label %41, label %6

6:                                                ; preds = %0
  %7 = call ptr @d2i_X509_PUBKEY(ptr noundef nonnull %1, ptr noundef nonnull %2, i64 noundef 91) #9
  %8 = call i32 @test_ptr(ptr noundef nonnull @.str.18, i32 noundef 3433, ptr noundef nonnull @.str.354, ptr noundef %7) #9
  %.not9 = icmp eq i32 %8, 0
  br i1 %.not9, label %41, label %9

9:                                                ; preds = %6
  %10 = load ptr, ptr %1, align 8, !tbaa !46
  %11 = call ptr @X509_PUBKEY_dup(ptr noundef %10) #9
  %12 = call i32 @test_ptr(ptr noundef nonnull @.str.18, i32 noundef 3434, ptr noundef nonnull @.str.358, ptr noundef %11) #9
  %.not10 = icmp eq i32 %12, 0
  br i1 %.not10, label %41, label %13

13:                                               ; preds = %9
  %14 = load ptr, ptr %1, align 8, !tbaa !46
  %15 = call i32 @test_ptr_ne(ptr noundef nonnull @.str.18, i32 noundef 3435, ptr noundef nonnull @.str.353, ptr noundef nonnull @.str.359, ptr noundef %14, ptr noundef %11) #9
  %.not11 = icmp eq i32 %15, 0
  br i1 %.not11, label %41, label %16

16:                                               ; preds = %13
  %17 = call ptr @X509_PUBKEY_get0(ptr noundef %11) #9
  %18 = call i32 @test_ptr(ptr noundef nonnull @.str.18, i32 noundef 3438, ptr noundef nonnull @.str.360, ptr noundef %17) #9
  %.not12 = icmp eq i32 %18, 0
  br i1 %.not12, label %41, label %19

19:                                               ; preds = %16
  %20 = load ptr, ptr %1, align 8, !tbaa !46
  %21 = call ptr @X509_PUBKEY_get0(ptr noundef %20) #9
  %22 = call i32 @test_ptr(ptr noundef nonnull @.str.18, i32 noundef 3439, ptr noundef nonnull @.str.355, ptr noundef %21) #9
  %.not13 = icmp eq i32 %22, 0
  br i1 %.not13, label %41, label %23

23:                                               ; preds = %19
  %24 = call ptr @X509_PUBKEY_get0(ptr noundef %11) #9
  %25 = load ptr, ptr %1, align 8, !tbaa !46
  %26 = call ptr @X509_PUBKEY_get0(ptr noundef %25) #9
  %27 = call i32 @test_ptr_ne(ptr noundef nonnull @.str.18, i32 noundef 3440, ptr noundef nonnull @.str.360, ptr noundef nonnull @.str.355, ptr noundef %24, ptr noundef %26) #9
  %.not14 = icmp eq i32 %27, 0
  br i1 %.not14, label %41, label %28

28:                                               ; preds = %23
  call void @X509_PUBKEY_free(ptr noundef %11) #9
  store ptr @kExampleBadECPubKeyDER, ptr %2, align 8, !tbaa !19
  %29 = call ptr @d2i_X509_PUBKEY(ptr noundef nonnull %1, ptr noundef nonnull %2, i64 noundef 91) #9
  store ptr %29, ptr %1, align 8, !tbaa !46
  %30 = call i32 @test_ptr(ptr noundef nonnull @.str.18, i32 noundef 3448, ptr noundef nonnull @.str.356, ptr noundef %29) #9
  %.not15 = icmp eq i32 %30, 0
  br i1 %.not15, label %41, label %31

31:                                               ; preds = %28
  %32 = load ptr, ptr %1, align 8, !tbaa !46
  %33 = call ptr @X509_PUBKEY_dup(ptr noundef %32) #9
  %34 = call i32 @test_ptr(ptr noundef nonnull @.str.18, i32 noundef 3449, ptr noundef nonnull @.str.358, ptr noundef %33) #9
  %.not16 = icmp eq i32 %34, 0
  br i1 %.not16, label %41, label %35

35:                                               ; preds = %31
  %36 = load ptr, ptr %1, align 8, !tbaa !46
  call void @X509_PUBKEY_free(ptr noundef %36) #9
  store ptr null, ptr %1, align 8, !tbaa !46
  %37 = call ptr @X509_PUBKEY_get0(ptr noundef %33) #9
  %38 = icmp eq ptr %37, null
  %39 = zext i1 %38 to i32
  %40 = call i32 @test_true(ptr noundef nonnull @.str.18, i32 noundef 3454, ptr noundef nonnull @.str.361, i32 noundef %39) #9
  %.not17 = icmp ne i32 %40, 0
  %spec.select = zext i1 %.not17 to i32
  br label %41

41:                                               ; preds = %35, %28, %31, %16, %19, %23, %0, %6, %9, %13
  %.08 = phi i32 [ 0, %31 ], [ 0, %28 ], [ 0, %23 ], [ 0, %19 ], [ 0, %16 ], [ 0, %13 ], [ 0, %9 ], [ 0, %6 ], [ 0, %0 ], [ %spec.select, %35 ]
  %.0 = phi ptr [ %33, %31 ], [ null, %28 ], [ %11, %23 ], [ %11, %19 ], [ %11, %16 ], [ %11, %13 ], [ %11, %9 ], [ null, %6 ], [ null, %0 ], [ %33, %35 ]
  %42 = load ptr, ptr %1, align 8, !tbaa !46
  call void @X509_PUBKEY_free(ptr noundef %42) #9
  call void @X509_PUBKEY_free(ptr noundef %.0) #9
  call void @llvm.lifetime.end.p0(i64 8, ptr nonnull %2) #9
  call void @llvm.lifetime.end.p0(i64 8, ptr nonnull %1) #9
  ret i32 %.08
}